target datalayout = "e-m:e-p270:32:32-p271:32:32-p272:64:64-i64:64-i128:128-f80:128-n8:16:32:64-S128"
target triple = "x86_64-pc-linux-gnu"

%struct.opj_tgt_tree = type { i32, i32, i32, ptr, i32 }

; Function Attrs: nounwind uwtable
define hidden void @opj_tgt_destroy(ptr noundef %0) #0 {
  %2 = alloca ptr, align 8
  store ptr %0, ptr %2, align 8, !tbaa !12
  %3 = load ptr, ptr %2, align 8, !tbaa !12
  %4 = icmp ne ptr %3, null
  br i1 %4, label %6, label %5

5:                                                ; preds = %1
  br label %19

6:                                                ; preds = %1
  %7 = load ptr, ptr %2, align 8, !tbaa !12
  %8 = getelementptr inbounds nuw %struct.opj_tgt_tree, ptr %7, i32 0, i32 3
  %9 = load ptr, ptr %8, align 8, !tbaa !20
  %10 = icmp ne ptr %9, null
  br i1 %10, label %11, label %17

11:                                               ; preds = %6
  %12 = load ptr, ptr %2, align 8, !tbaa !12
  %13 = getelementptr inbounds nuw %struct.opj_tgt_tree, ptr %12, i32 0, i32 3
  %14 = load ptr, ptr %13, align 8, !tbaa !20
  call void @opj_free(ptr noundef %14)
  %15 = load ptr, ptr %2, align 8, !tbaa !12
  %16 = getelementptr inbounds nuw %struct.opj_tgt_tree, ptr %15, i32 0, i32 3
  store ptr null, ptr %16, align 8, !tbaa !20
  br label %17

17:                                               ; preds = %11, %6
  %18 = load ptr, ptr %2, align 8, !tbaa !12
  call void @opj_free(ptr noundef %18)
  br label %19

19:                                               ; preds = %17, %5
  ret void
}