; Function Attrs: nounwind uwtable
define hidden void @opj_tgt_destroy(ptr noundef %0) local_unnamed_addr #0 {
  %.not = icmp eq ptr %0, null
  br i1 %.not, label %7, label %2

2:                                                ; preds = %1
  %3 = getelementptr inbounds nuw i8, ptr %0, i64 16
  %4 = load ptr, ptr %3, align 8, !tbaa !15
  %.not6 = icmp eq ptr %4, null
  br i1 %.not6, label %6, label %5

5:                                                ; preds = %2
  tail call void @opj_free(ptr noundef nonnull %4) #6
  store ptr null, ptr %3, align 8, !tbaa !15
  br label %6

6:                                                ; preds = %5, %2
  tail call void @opj_free(ptr noundef nonnull %0) #6
  br label %7

7:                                                ; preds = %1, %6
  ret void
}